target datalayout = "e-m:e-p270:32:32-p271:32:32-p272:64:64-i64:64-i128:128-f80:128-n8:16:32:64-S128"
target triple = "x86_64-pc-linux-gnu"

%struct.repository = type { ptr, ptr, ptr, ptr, ptr, %struct.strmap, %struct.strmap, %struct.repo_path_cache, ptr, ptr, ptr, ptr, %struct.repo_settings, ptr, ptr, ptr, ptr, ptr, ptr, i32, i32, i32, ptr, ptr, i32, i32, i8 }
%struct.strmap = type { %struct.hashmap, ptr, i8 }
%struct.hashmap = type { ptr, ptr, ptr, i32, i32, i32, i32, i8 }
%struct.repo_path_cache = type { ptr, ptr, ptr, ptr, ptr, ptr, ptr }
%struct.repo_settings = type { i32, i32, i32, i32, i32, i32, i32, i32, i32, i32, i32, i32, ptr, i32, i32, i32, i32, i32, i32, i32, i64, i64, i64 }
%struct.git_hash_algo = type { ptr, i32, i64, i64, i64, ptr, ptr, ptr, ptr, ptr, ptr, ptr, ptr, ptr }

@the_repository = dso_local global ptr @the_repo, align 8
@hash_algos = external constant [3 x %struct.git_hash_algo], align 16
@.str.12 = private unnamed_addr constant [27 x i8] c"size_t overflow: %lu * %lu\00", align 1
@.str.13 = private unnamed_addr constant [27 x i8] c"GIT_TEST_DEFAULT_HASH_ALGO\00", align 1

; Function Attrs: nounwind uwtable
define dso_local void @repo_set_hash_algo(ptr noundef %0, i32 noundef %1) #0 {
  %3 = alloca ptr, align 8
  %4 = alloca i32, align 4
  store ptr %0, ptr %3, align 8, !tbaa !4
  store i32 %1, ptr %4, align 4, !tbaa !35
  %5 = load i32, ptr %4, align 4, !tbaa !35
  %6 = sext i32 %5 to i64
  %7 = getelementptr inbounds [3 x %struct.git_hash_algo], ptr @hash_algos, i64 0, i64 %6
  %8 = load ptr, ptr %3, align 8, !tbaa !4
  %9 = getelementptr inbounds nuw %struct.repository, ptr %8, i32 0, i32 17
  store ptr %7, ptr %9, align 8, !tbaa !72
  ret void
}

; Function Attrs: nounwind uwtable
define internal void @set_default_hash_algo(ptr noundef %0) #0 {
  %2 = alloca ptr, align 8
  %3 = alloca ptr, align 8
  %4 = alloca i32, align 4
  %5 = alloca i32, align 4
  store ptr %0, ptr %2, align 8, !tbaa !4
  call void @llvm.lifetime.start.p0(i64 8, ptr %3) #9
  call void @llvm.lifetime.start.p0(i64 4, ptr %4) #9
  %6 = call ptr @getenv(ptr noundef @.str.13) #9
  store ptr %6, ptr %3, align 8, !tbaa !34
  %7 = load ptr, ptr %3, align 8, !tbaa !34
  %8 = icmp ne ptr %7, null
  br i1 %8, label %10, label %9

9:                                                ; preds = %1
  store i32 1, ptr %5, align 4
  br label %19

10:                                               ; preds = %1
  %11 = load ptr, ptr %3, align 8, !tbaa !34
  %12 = call i32 @hash_algo_by_name(ptr noundef %11)
  store i32 %12, ptr %4, align 4, !tbaa !35
  %13 = load i32, ptr %4, align 4, !tbaa !35
  %14 = icmp eq i32 %13, 0
  br i1 %14, label %15, label %16

15:                                               ; preds = %10
  store i32 1, ptr %5, align 4
  br label %19

16:                                               ; preds = %10
  %17 = load ptr, ptr %2, align 8, !tbaa !4
  %18 = load i32, ptr %4, align 4, !tbaa !35
  call void @repo_set_hash_algo(ptr noundef %17, i32 noundef %18)
  store i32 0, ptr %5, align 4
  br label %19

19:                                               ; preds = %16, %15, %9
  call void @llvm.lifetime.end.p0(i64 4, ptr %4) #9
  call void @llvm.lifetime.end.p0(i64 8, ptr %3) #9
  %20 = load i32, ptr %5, align 4
  switch i32 %20, label %22 [
    i32 0, label %21
    i32 1, label %21
  ]

21:                                               ; preds = %19, %19
  ret void

22:                                               ; preds = %19
  unreachable
}

; Function Attrs: inlinehint nounwind uwtable
define internal i64 @st_mult(i64 noundef %0, i64 noundef %1) #2 {
  %3 = alloca i64, align 8
  %4 = alloca i64, align 8
  store i64 %0, ptr %3, align 8, !tbaa !33
  store i64 %1, ptr %4, align 8, !tbaa !33
  %5 = load i64, ptr %3, align 8, !tbaa !33
  %6 = icmp ne i64 %5, 0
  br i1 %6, label %7, label %15

7:                                                ; preds = %2
  %8 = load i64, ptr %4, align 8, !tbaa !33
  %9 = load i64, ptr %3, align 8, !tbaa !33
  %10 = udiv i64 -1, %9
  %11 = icmp ugt i64 %8, %10
  br i1 %11, label %12, label %15

12:                                               ; preds = %7
  %13 = load i64, ptr %3, align 8, !tbaa !33
  %14 = load i64, ptr %4, align 8, !tbaa !33
  call void (ptr, ...) @die(ptr noundef @.str.12, i64 noundef %13, i64 noundef %14) #8
  unreachable

15:                                               ; preds = %7, %2
  %16 = load i64, ptr %3, align 8, !tbaa !33
  %17 = load i64, ptr %4, align 8, !tbaa !33
  %18 = mul i64 %16, %17
  ret i64 %18
}

; Function Attrs: nounwind uwtable
define dso_local void @initialize_repository(ptr noundef %0) #0 {
  %2 = alloca ptr, align 8
  store ptr %0, ptr %2, align 8, !tbaa !4
  %3 = call ptr @raw_object_store_new()
  %4 = load ptr, ptr %2, align 8, !tbaa !4
  %5 = getelementptr inbounds nuw %struct.repository, ptr %4, i32 0, i32 2
  store ptr %3, ptr %5, align 8, !tbaa !9
  %6 = call ptr @remote_state_new()
  %7 = load ptr, ptr %2, align 8, !tbaa !4
  %8 = getelementptr inbounds nuw %struct.repository, ptr %7, i32 0, i32 16
  store ptr %6, ptr %8, align 8, !tbaa !30
  %9 = load ptr, ptr %2, align 8, !tbaa !4
  %10 = call ptr @parsed_object_pool_new(ptr noundef %9)
  %11 = load ptr, ptr %2, align 8, !tbaa !4
  %12 = getelementptr inbounds nuw %struct.repository, ptr %11, i32 0, i32 3
  store ptr %10, ptr %12, align 8, !tbaa !31
  %13 = call i64 @st_mult(i64 noundef 256, i64 noundef 1)
  %14 = call ptr @xmalloc(i64 noundef %13)
  %15 = load ptr, ptr %2, align 8, !tbaa !4
  %16 = getelementptr inbounds nuw %struct.repository, ptr %15, i32 0, i32 15
  store ptr %14, ptr %16, align 8, !tbaa !32
  %17 = load ptr, ptr %2, align 8, !tbaa !4
  %18 = getelementptr inbounds nuw %struct.repository, ptr %17, i32 0, i32 15
  %19 = load ptr, ptr %18, align 8, !tbaa !32
  %20 = load ptr, ptr %2, align 8, !tbaa !4
  call void @index_state_init(ptr noundef %19, ptr noundef %20)
  %21 = load ptr, ptr %2, align 8, !tbaa !4
  %22 = load ptr, ptr @the_repository, align 8, !tbaa !4
  %23 = icmp eq ptr %21, %22
  br i1 %23, label %24, label %26

24:                                               ; preds = %1
  %25 = load ptr, ptr %2, align 8, !tbaa !4
  call void @set_default_hash_algo(ptr noundef %25)
  br label %26

26:                                               ; preds = %24, %1
  ret void
}