; Function Attrs: nounwind uwtable
define dso_local void @initialize_repository(ptr noundef initializes((16, 24), (392, 400)) %0) local_unnamed_addr #0 {
  %2 = tail call ptr @raw_object_store_new() #10
  %3 = getelementptr inbounds nuw i8, ptr %0, i64 16
  store ptr %2, ptr %3, align 8, !tbaa !4
  %4 = tail call ptr @remote_state_new() #10
  %5 = getelementptr inbounds nuw i8, ptr %0, i64 392
  store ptr %4, ptr %5, align 8, !tbaa !28
  %6 = tail call ptr @parsed_object_pool_new(ptr noundef %0) #10
  %7 = getelementptr inbounds nuw i8, ptr %0, i64 24
  store ptr %6, ptr %7, align 8, !tbaa !29
  %8 = tail call ptr @xmalloc(i64 noundef 256) #10
  %9 = getelementptr inbounds nuw i8, ptr %0, i64 384
  store ptr %8, ptr %9, align 8, !tbaa !30
  tail call void @index_state_init(ptr noundef %8, ptr noundef %0) #10
  %10 = load ptr, ptr @the_repository, align 8, !tbaa !31
  %11 = icmp eq ptr %0, %10
  br i1 %11, label %12, label %set_default_hash_algo.exit

12:                                               ; preds = %1
  %13 = tail call ptr @getenv(ptr noundef nonnull @.str.13) #10
  %.not.i = icmp eq ptr %13, null
  br i1 %.not.i, label %set_default_hash_algo.exit, label %14

14:                                               ; preds = %12
  %15 = tail call i32 @hash_algo_by_name(ptr noundef nonnull %13) #10
  %16 = icmp eq i32 %15, 0
  br i1 %16, label %set_default_hash_algo.exit, label %17

17:                                               ; preds = %14
  %18 = sext i32 %15 to i64
  %19 = getelementptr inbounds [3 x %struct.git_hash_algo], ptr @hash_algos, i64 0, i64 %18
  %20 = getelementptr inbounds nuw i8, ptr %0, i64 400
  store ptr %19, ptr %20, align 8, !tbaa !33
  br label %set_default_hash_algo.exit

set_default_hash_algo.exit:                       ; preds = %17, %14, %12, %1
  ret void
}